; Function Attrs: mustprogress uwtable
define hidden void @_ZN10sls_engine6mk_decEjRK3mpzRS0_(ptr noundef nonnull align 8 dereferenceable(1496) %0, i32 noundef %1, ptr noundef nonnull align 8 dereferenceable(16) %2, ptr noundef nonnull align 8 dereferenceable(16) %3) local_unnamed_addr #3 align 2 {
  %5 = alloca %class.mpz, align 8
  %6 = load i32, ptr %2, align 8, !tbaa !32
  %7 = icmp eq i32 %6, 0
  %8 = getelementptr inbounds nuw i8, ptr %0, i64 64
  br i1 %7, label %9, label %24

9:                                                ; preds = %4
  %10 = getelementptr inbounds nuw i8, ptr %0, i64 664
  %11 = tail call noundef nonnull align 8 dereferenceable(16) ptr @_ZN6powersclEj(ptr noundef nonnull align 8 dereferenceable(32) %10, i32 noundef %1)
  %12 = getelementptr inbounds nuw i8, ptr %11, i64 4
  %13 = load i8, ptr %12, align 4
  %14 = and i8 %13, 1
  %15 = icmp eq i8 %14, 0
  br i1 %15, label %16, label %21

16:                                               ; preds = %9
  %17 = load i32, ptr %11, align 8, !tbaa !32
  store i32 %17, ptr %3, align 8, !tbaa !32
  %18 = getelementptr inbounds nuw i8, ptr %3, i64 4
  %19 = load i8, ptr %18, align 4
  %20 = and i8 %19, -2
  store i8 %20, ptr %18, align 4
  br label %_ZN11mpz_managerILb0EE3setER3mpzRKS1_.exit

21:                                               ; preds = %9
  tail call void @_ZN11mpz_managerILb0EE7big_setER3mpzRKS1_(ptr noundef nonnull align 8 dereferenceable(600) %8, ptr noundef nonnull align 8 dereferenceable(16) %3, ptr noundef nonnull align 8 dereferenceable(16) %11)
  br label %_ZN11mpz_managerILb0EE3setER3mpzRKS1_.exit

_ZN11mpz_managerILb0EE3setER3mpzRKS1_.exit:       ; preds = %16, %21
  call void @llvm.lifetime.start.p0(i64 16, ptr nonnull %5) #25
  store i32 -1, ptr %5, align 8, !tbaa !32
  %22 = getelementptr inbounds nuw i8, ptr %5, i64 4
  store i8 0, ptr %22, align 4
  %23 = getelementptr inbounds nuw i8, ptr %5, i64 8
  store ptr null, ptr %23, align 8, !tbaa !38
  call void @_ZN11mpz_managerILb0EE3addERK3mpzS3_RS1_(ptr noundef nonnull align 8 dereferenceable(600) %8, ptr noundef nonnull align 8 dereferenceable(16) %3, ptr noundef nonnull align 8 dereferenceable(16) %5, ptr noundef nonnull align 8 dereferenceable(16) %3)
  call void @llvm.lifetime.end.p0(i64 16, ptr nonnull %5) #25
  br label %26

24:                                               ; preds = %4
  %25 = getelementptr inbounds nuw i8, ptr %0, i64 712
  tail call void @_ZN11mpz_managerILb0EE3subERK3mpzS3_RS1_(ptr noundef nonnull align 8 dereferenceable(600) %8, ptr noundef nonnull align 8 dereferenceable(16) %2, ptr noundef nonnull align 8 dereferenceable(16) %25, ptr noundef nonnull align 8 dereferenceable(16) %3)
  br label %26

26:                                               ; preds = %24, %_ZN11mpz_managerILb0EE3setER3mpzRKS1_.exit
  ret void
}